target datalayout = "e-m:e-p270:32:32-p271:32:32-p272:64:64-i64:64-i128:128-f80:128-n8:16:32:64-S128"
target triple = "x86_64-pc-linux-gnu"

%struct.darktable_t = type { %struct.dt_codepath_t, i32, i32, ptr, ptr, ptr, ptr, ptr, ptr, ptr, ptr, ptr, ptr, ptr, ptr, ptr, ptr, ptr, ptr, ptr, ptr, ptr, ptr, ptr, ptr, ptr, ptr, ptr, ptr, ptr, [64 x %struct.dt_pthread_mutex_t], %struct.dt_pthread_mutex_t, %struct.dt_pthread_mutex_t, %struct.dt_pthread_mutex_t, %struct.dt_pthread_mutex_t, %struct.dt_pthread_mutex_t, ptr, ptr, ptr, ptr, ptr, ptr, ptr, ptr, ptr, ptr, ptr, ptr, ptr, %struct.dt_lua_state_t, ptr, double, ptr, i32, [47 x i32], i32, i32, ptr, ptr, %struct.dt_sys_resources_t, %struct.dt_backthumb_t, %struct.dt_gimp_t }
%struct.dt_codepath_t = type { i8, [3 x i8] }
%struct.dt_pthread_mutex_t = type { %union.pthread_mutex_t }
%union.pthread_mutex_t = type { %struct.__pthread_mutex_s }
%struct.__pthread_mutex_s = type { i32, i32, i32, i32, i32, i16, i16, %struct.__pthread_internal_list }
%struct.__pthread_internal_list = type { ptr, ptr }
%struct.dt_lua_state_t = type { i32 }
%struct.dt_sys_resources_t = type { i64, i64, ptr, ptr, i32 }
%struct.dt_backthumb_t = type { double, double, i32, i32, i32, i32 }
%struct.dt_gimp_t = type { i32, ptr, ptr, i32, i32 }
%struct.dt_iop_module_t = type { i32, ptr, ptr, ptr, ptr, ptr, ptr, ptr, ptr, ptr, ptr, ptr, ptr, ptr, ptr, ptr, ptr, ptr, ptr, ptr, ptr, ptr, ptr, ptr, ptr, ptr, ptr, ptr, ptr, ptr, ptr, ptr, ptr, ptr, ptr, ptr, ptr, ptr, ptr, ptr, ptr, ptr, ptr, ptr, ptr, ptr, ptr, ptr, ptr, ptr, ptr, ptr, ptr, ptr, ptr, ptr, ptr, [20 x i8], i32, i32, i32, i32, i32, i32, i32, [8 x i8], [4 x float], [4 x float], [4 x float], [4 x float], [4 x float], [4 x float], ptr, %struct.dt_dev_histogram_stats_t, [4 x i32], i32, i32, ptr, i32, i32, ptr, ptr, i32, ptr, %struct.dt_pthread_mutex_t, ptr, ptr, ptr, ptr, %struct.anon, ptr, ptr, ptr, ptr, ptr, ptr, ptr, i32, ptr, ptr, ptr, ptr, ptr, ptr, ptr, i32, ptr, i32, [128 x i8], i32, ptr, ptr, i32, [12 x i8] }
%struct.dt_dev_histogram_stats_t = type { i32, i64, i32, i32 }
%struct.anon = type { %struct.anon.0, %struct.anon.1 }
%struct.anon.0 = type { ptr, ptr }
%struct.anon.1 = type { ptr, i32 }
%struct.dt_iop_rgblevels_gui_data_t = type { %struct.dt_iop_rgblevels_params_t, ptr, ptr, ptr, ptr, ptr, ptr, i32, i32, float, float, float, float, [4 x float], i32, double, double, i32, i32, float, i32, float, ptr, ptr, ptr }
%struct.dt_iop_rgblevels_params_t = type { i32, i32, [3 x [3 x float]] }
%struct.dt_gui_gtk_t = type { ptr, %struct.dt_gui_widgets_t, %struct.dt_gui_scrollbars_t, i32, ptr, i32, [39 x %struct._GdkRGBA], i32, i32, i32, i32, i32, double, double, double, double, ptr, double, double, double, double, i32, i32, [4096 x i8], i32, i32, i32, %struct.dt_pthread_mutex_t }
%struct.dt_gui_widgets_t = type { ptr, ptr, ptr, ptr, i32, i32, i32 }
%struct.dt_gui_scrollbars_t = type { ptr, ptr, i32 }
%struct._GdkRGBA = type { double, double, double, double }

@darktable = external global %struct.darktable_t, align 8

; Function Attrs: inlinehint nounwind uwtable
define internal i32 @dt_pthread_mutex_unlock(ptr noundef %0) #8 {
  %2 = alloca ptr, align 8
  store ptr %0, ptr %2, align 8, !tbaa !262
  %3 = load ptr, ptr %2, align 8, !tbaa !262
  %4 = getelementptr inbounds nuw %struct.dt_pthread_mutex_t, ptr %3, i32 0, i32 0
  %5 = call i32 @pthread_mutex_unlock(ptr noundef %4) #13
  ret i32 %5
}

; Function Attrs: inlinehint nounwind uwtable
define internal i32 @dt_pthread_mutex_lock(ptr noundef %0) #8 {
  %2 = alloca ptr, align 8
  store ptr %0, ptr %2, align 8, !tbaa !262
  %3 = load ptr, ptr %2, align 8, !tbaa !262
  %4 = getelementptr inbounds nuw %struct.dt_pthread_mutex_t, ptr %3, i32 0, i32 0
  %5 = call i32 @pthread_mutex_lock(ptr noundef %4) #13
  ret i32 %5
}

; Function Attrs: inlinehint nounwind uwtable
define internal void @dt_iop_gui_leave_critical_section(ptr noundef %0) #8 {
  %2 = alloca ptr, align 8
  store ptr %0, ptr %2, align 8, !tbaa !6
  %3 = load ptr, ptr %2, align 8, !tbaa !6
  %4 = getelementptr inbounds nuw %struct.dt_iop_module_t, ptr %3, i32 0, i32 84
  %5 = call i32 @dt_pthread_mutex_unlock(ptr noundef %4)
  ret void
}

; Function Attrs: inlinehint nounwind uwtable
define internal void @dt_iop_gui_enter_critical_section(ptr noundef %0) #8 {
  %2 = alloca ptr, align 8
  store ptr %0, ptr %2, align 8, !tbaa !6
  %3 = load ptr, ptr %2, align 8, !tbaa !6
  %4 = getelementptr inbounds nuw %struct.dt_iop_module_t, ptr %3, i32 0, i32 84
  %5 = call i32 @dt_pthread_mutex_lock(ptr noundef %4)
  ret void
}

; Function Attrs: nounwind uwtable
define internal void @_develop_ui_pipe_finished_callback(ptr noundef %0, ptr noundef %1) #0 {
  %3 = alloca ptr, align 8
  %4 = alloca ptr, align 8
  %5 = alloca ptr, align 8
  %6 = alloca ptr, align 8
  %7 = alloca i32, align 4
  store ptr %0, ptr %3, align 8, !tbaa !124
  store ptr %1, ptr %4, align 8, !tbaa !6
  call void @llvm.lifetime.start.p0(i64 8, ptr %5) #13
  %8 = load ptr, ptr %4, align 8, !tbaa !6
  %9 = getelementptr inbounds nuw %struct.dt_iop_module_t, ptr %8, i32 0, i32 80
  %10 = load ptr, ptr %9, align 8, !tbaa !125
  store ptr %10, ptr %5, align 8, !tbaa !126
  call void @llvm.lifetime.start.p0(i64 8, ptr %6) #13
  %11 = load ptr, ptr %4, align 8, !tbaa !6
  %12 = getelementptr inbounds nuw %struct.dt_iop_module_t, ptr %11, i32 0, i32 83
  %13 = load ptr, ptr %12, align 16, !tbaa !21
  store ptr %13, ptr %6, align 8, !tbaa !37
  %14 = load ptr, ptr %6, align 8, !tbaa !37
  %15 = icmp eq ptr %14, null
  br i1 %15, label %16, label %17

16:                                               ; preds = %2
  store i32 1, ptr %7, align 4
  br label %48

17:                                               ; preds = %2
  %18 = load ptr, ptr %4, align 8, !tbaa !6
  call void @dt_iop_gui_enter_critical_section(ptr noundef %18)
  %19 = load ptr, ptr %6, align 8, !tbaa !37
  %20 = getelementptr inbounds nuw %struct.dt_iop_rgblevels_gui_data_t, ptr %19, i32 0, i32 7
  %21 = load i32, ptr %20, align 8, !tbaa !120
  %22 = icmp eq i32 %21, 2
  br i1 %22, label %23, label %45

23:                                               ; preds = %17
  %24 = load ptr, ptr %6, align 8, !tbaa !37
  %25 = getelementptr inbounds nuw %struct.dt_iop_rgblevels_gui_data_t, ptr %24, i32 0, i32 7
  store i32 -1, ptr %25, align 8, !tbaa !120
  %26 = load ptr, ptr %4, align 8, !tbaa !6
  call void @dt_iop_gui_leave_critical_section(ptr noundef %26)
  %27 = load ptr, ptr %5, align 8, !tbaa !126
  %28 = load ptr, ptr %6, align 8, !tbaa !37
  %29 = getelementptr inbounds nuw %struct.dt_iop_rgblevels_gui_data_t, ptr %28, i32 0, i32 0
  call void @llvm.memcpy.p0.p0.i64(ptr align 4 %27, ptr align 8 %29, i64 44, i1 false)
  %30 = load ptr, ptr getelementptr inbounds nuw (%struct.darktable_t, ptr @darktable, i32 0, i32 9), align 8, !tbaa !51
  %31 = load ptr, ptr %4, align 8, !tbaa !6
  call void @dt_dev_add_history_item(ptr noundef %30, ptr noundef %31, i32 noundef 1)
  %32 = load ptr, ptr %4, align 8, !tbaa !6
  call void @dt_iop_gui_enter_critical_section(ptr noundef %32)
  %33 = load ptr, ptr %6, align 8, !tbaa !37
  %34 = getelementptr inbounds nuw %struct.dt_iop_rgblevels_gui_data_t, ptr %33, i32 0, i32 7
  store i32 0, ptr %34, align 8, !tbaa !120
  %35 = load ptr, ptr %4, align 8, !tbaa !6
  call void @dt_iop_gui_leave_critical_section(ptr noundef %35)
  %36 = load ptr, ptr getelementptr inbounds nuw (%struct.darktable_t, ptr @darktable, i32 0, i32 14), align 8, !tbaa !176
  %37 = getelementptr inbounds nuw %struct.dt_gui_gtk_t, ptr %36, i32 0, i32 5
  %38 = load i32, ptr %37, align 8, !tbaa !177
  %39 = add nsw i32 %38, 1
  store i32 %39, ptr %37, align 8, !tbaa !177
  %40 = load ptr, ptr %4, align 8, !tbaa !6
  call void @gui_update(ptr noundef %40)
  %41 = load ptr, ptr getelementptr inbounds nuw (%struct.darktable_t, ptr @darktable, i32 0, i32 14), align 8, !tbaa !176
  %42 = getelementptr inbounds nuw %struct.dt_gui_gtk_t, ptr %41, i32 0, i32 5
  %43 = load i32, ptr %42, align 8, !tbaa !177
  %44 = add nsw i32 %43, -1
  store i32 %44, ptr %42, align 8, !tbaa !177
  br label %47

45:                                               ; preds = %17
  %46 = load ptr, ptr %4, align 8, !tbaa !6
  call void @dt_iop_gui_leave_critical_section(ptr noundef %46)
  br label %47

47:                                               ; preds = %45, %23
  store i32 0, ptr %7, align 4
  br label %48

48:                                               ; preds = %47, %16
  call void @llvm.lifetime.end.p0(i64 8, ptr %6) #13
  call void @llvm.lifetime.end.p0(i64 8, ptr %5) #13
  %49 = load i32, ptr %7, align 4
  switch i32 %49, label %51 [
    i32 0, label %50
    i32 1, label %50
  ]

50:                                               ; preds = %48, %48
  ret void

51:                                               ; preds = %48
  unreachable
}