; Function Attrs: nounwind uwtable
define internal void @_develop_ui_pipe_finished_callback(ptr readnone captures(none) %0, ptr noundef %1) #1 {
  %3 = getelementptr inbounds nuw i8, ptr %1, i64 680
  %4 = load ptr, ptr %3, align 8, !tbaa !114
  %5 = getelementptr inbounds nuw i8, ptr %1, i64 704
  %6 = load ptr, ptr %5, align 16, !tbaa !6
  %7 = icmp eq ptr %6, null
  br i1 %7, label %29, label %8

8:                                                ; preds = %2
  %9 = getelementptr inbounds nuw i8, ptr %1, i64 712
  %10 = tail call i32 @pthread_mutex_lock(ptr noundef nonnull %9) #21
  %11 = getelementptr inbounds nuw i8, ptr %6, i64 96
  %12 = load i32, ptr %11, align 8, !tbaa !112
  %13 = icmp eq i32 %12, 2
  br i1 %13, label %14, label %27

14:                                               ; preds = %8
  store i32 -1, ptr %11, align 8, !tbaa !112
  %15 = tail call i32 @pthread_mutex_unlock(ptr noundef nonnull %9) #21
  tail call void @llvm.memcpy.p0.p0.i64(ptr noundef nonnull align 4 dereferenceable(44) %4, ptr noundef nonnull align 8 dereferenceable(44) %6, i64 44, i1 false)
  %16 = load ptr, ptr getelementptr inbounds nuw (i8, ptr @darktable, i64 64), align 8, !tbaa !42
  tail call void @dt_dev_add_history_item(ptr noundef %16, ptr noundef nonnull %1, i32 noundef 1) #21
  %17 = tail call i32 @pthread_mutex_lock(ptr noundef nonnull %9) #21
  store i32 0, ptr %11, align 8, !tbaa !112
  %18 = tail call i32 @pthread_mutex_unlock(ptr noundef nonnull %9) #21
  %19 = load ptr, ptr getelementptr inbounds nuw (i8, ptr @darktable, i64 104), align 8, !tbaa !155
  %20 = getelementptr inbounds nuw i8, ptr %19, i64 96
  %21 = load i32, ptr %20, align 8, !tbaa !156
  %22 = add nsw i32 %21, 1
  store i32 %22, ptr %20, align 8, !tbaa !156
  tail call void @gui_update(ptr noundef nonnull %1)
  %23 = load ptr, ptr getelementptr inbounds nuw (i8, ptr @darktable, i64 104), align 8, !tbaa !155
  %24 = getelementptr inbounds nuw i8, ptr %23, i64 96
  %25 = load i32, ptr %24, align 8, !tbaa !156
  %26 = add nsw i32 %25, -1
  store i32 %26, ptr %24, align 8, !tbaa !156
  br label %29

27:                                               ; preds = %8
  %28 = tail call i32 @pthread_mutex_unlock(ptr noundef nonnull %9) #21
  br label %29

29:                                               ; preds = %14, %27, %2
  ret void
}